target datalayout = "e-m:e-p270:32:32-p271:32:32-p272:64:64-i64:64-i128:128-f80:128-n8:16:32:64-S128"
target triple = "x86_64-pc-linux-gnu"

%struct.luaL_Buffer = type { ptr, i64, i64, ptr, %union.anon }
%union.anon = type { double, [1016 x i8] }
%struct.str_Writer = type { i32, %struct.luaL_Buffer }

; Function Attrs: nounwind uwtable
define internal i32 @writer(ptr noundef %0, ptr noundef %1, i64 noundef %2, ptr noundef %3) #0 {
  %5 = alloca ptr, align 8
  %6 = alloca ptr, align 8
  %7 = alloca i64, align 8
  %8 = alloca ptr, align 8
  %9 = alloca ptr, align 8
  store ptr %0, ptr %5, align 8, !tbaa !4
  store ptr %1, ptr %6, align 8, !tbaa !26
  store i64 %2, ptr %7, align 8, !tbaa !13
  store ptr %3, ptr %8, align 8, !tbaa !26
  call void @llvm.lifetime.start.p0(i64 8, ptr %9) #11
  %10 = load ptr, ptr %8, align 8, !tbaa !26
  store ptr %10, ptr %9, align 8, !tbaa !41
  %11 = load ptr, ptr %9, align 8, !tbaa !41
  %12 = getelementptr inbounds nuw %struct.str_Writer, ptr %11, i32 0, i32 0
  %13 = load i32, ptr %12, align 8, !tbaa !18
  %14 = icmp ne i32 %13, 0
  br i1 %14, label %21, label %15

15:                                               ; preds = %4
  %16 = load ptr, ptr %9, align 8, !tbaa !41
  %17 = getelementptr inbounds nuw %struct.str_Writer, ptr %16, i32 0, i32 0
  store i32 1, ptr %17, align 8, !tbaa !18
  %18 = load ptr, ptr %5, align 8, !tbaa !4
  %19 = load ptr, ptr %9, align 8, !tbaa !41
  %20 = getelementptr inbounds nuw %struct.str_Writer, ptr %19, i32 0, i32 1
  call void @luaL_buffinit(ptr noundef %18, ptr noundef %20)
  br label %21

21:                                               ; preds = %15, %4
  %22 = load ptr, ptr %6, align 8, !tbaa !26
  %23 = icmp eq ptr %22, null
  br i1 %23, label %24, label %29

24:                                               ; preds = %21
  %25 = load ptr, ptr %9, align 8, !tbaa !41
  %26 = getelementptr inbounds nuw %struct.str_Writer, ptr %25, i32 0, i32 1
  call void @luaL_pushresult(ptr noundef %26)
  %27 = load ptr, ptr %5, align 8, !tbaa !4
  call void @lua_copy(ptr noundef %27, i32 noundef -1, i32 noundef 1)
  %28 = load ptr, ptr %5, align 8, !tbaa !4
  call void @lua_settop(ptr noundef %28, i32 noundef -2)
  br label %34

29:                                               ; preds = %21
  %30 = load ptr, ptr %9, align 8, !tbaa !41
  %31 = getelementptr inbounds nuw %struct.str_Writer, ptr %30, i32 0, i32 1
  %32 = load ptr, ptr %6, align 8, !tbaa !26
  %33 = load i64, ptr %7, align 8, !tbaa !13
  call void @luaL_addlstring(ptr noundef %31, ptr noundef %32, i64 noundef %33)
  br label %34

34:                                               ; preds = %29, %24
  call void @llvm.lifetime.end.p0(i64 8, ptr %9) #11
  ret i32 0
}