; Function Attrs: nounwind uwtable
define internal noundef i32 @writer(ptr noundef %0, ptr noundef %1, i64 noundef %2, ptr noundef %3) #0 {
  %5 = load i32, ptr %3, align 8, !tbaa !11
  %.not = icmp eq i32 %5, 0
  br i1 %.not, label %6, label %8

6:                                                ; preds = %4
  store i32 1, ptr %3, align 8, !tbaa !11
  %7 = getelementptr inbounds nuw i8, ptr %3, i64 8
  tail call void @luaL_buffinit(ptr noundef %0, ptr noundef nonnull %7) #12
  br label %8

8:                                                ; preds = %6, %4
  %9 = icmp eq ptr %1, null
  %10 = getelementptr inbounds nuw i8, ptr %3, i64 8
  br i1 %9, label %11, label %12

11:                                               ; preds = %8
  tail call void @luaL_pushresult(ptr noundef nonnull %10) #12
  tail call void @lua_copy(ptr noundef %0, i32 noundef -1, i32 noundef 1) #12
  tail call void @lua_settop(ptr noundef %0, i32 noundef -2) #12
  br label %13

12:                                               ; preds = %8
  tail call void @luaL_addlstring(ptr noundef nonnull %10, ptr noundef nonnull %1, i64 noundef %2) #12
  br label %13

13:                                               ; preds = %12, %11
  ret i32 0
}